target datalayout = "e-m:e-p270:32:32-p271:32:32-p272:64:64-i64:64-i128:128-f80:128-n8:16:32:64-S128"
target triple = "x86_64-pc-linux-gnu"

%struct.ident_t = type { i32, i32, i32, i32, ptr }
%"class.LightGBM::MultiValBinWrapper" = type { i8, i8, i8, %"class.std::unique_ptr", %"class.std::unique_ptr", %"class.std::vector", %"class.std::vector", %"class.std::vector", %"class.std::vector.2", i32, i32, i32, i32, i32, i32, i32, i32, ptr, i64, i64, i64, i64 }
%"class.std::unique_ptr" = type { %"struct.std::__uniq_ptr_data" }
%"struct.std::__uniq_ptr_data" = type { %"class.std::__uniq_ptr_impl" }
%"class.std::__uniq_ptr_impl" = type { %"class.std::tuple" }
%"class.std::tuple" = type { %"struct.std::_Tuple_impl" }
%"struct.std::_Tuple_impl" = type { %"struct.std::_Head_base.1" }
%"struct.std::_Head_base.1" = type { ptr }
%"class.std::vector" = type { %"struct.std::_Vector_base" }
%"struct.std::_Vector_base" = type { %"struct.std::_Vector_base<unsigned int, std::allocator<unsigned int>>::_Vector_impl" }
%"struct.std::_Vector_base<unsigned int, std::allocator<unsigned int>>::_Vector_impl" = type { %"struct.std::_Vector_base<unsigned int, std::allocator<unsigned int>>::_Vector_impl_data" }
%"struct.std::_Vector_base<unsigned int, std::allocator<unsigned int>>::_Vector_impl_data" = type { ptr, ptr, ptr }
%"class.std::vector.2" = type { %"struct.std::_Vector_base.3" }
%"struct.std::_Vector_base.3" = type { %"struct.std::_Vector_base<int, std::allocator<int>>::_Vector_impl" }
%"struct.std::_Vector_base<int, std::allocator<int>>::_Vector_impl" = type { %"struct.std::_Vector_base<int, std::allocator<int>>::_Vector_impl_data" }
%"struct.std::_Vector_base<int, std::allocator<int>>::_Vector_impl_data" = type { ptr, ptr, ptr }
%"struct.std::_Vector_base.8" = type { %"struct.std::_Vector_base<double, LightGBM::Common::AlignmentAllocator<double>>::_Vector_impl" }
%"struct.std::_Vector_base<double, LightGBM::Common::AlignmentAllocator<double>>::_Vector_impl" = type { %"struct.std::_Vector_base<double, LightGBM::Common::AlignmentAllocator<double>>::_Vector_impl_data" }
%"struct.std::_Vector_base<double, LightGBM::Common::AlignmentAllocator<double>>::_Vector_impl_data" = type { ptr, ptr, ptr }

@1 = private unnamed_addr constant %struct.ident_t { i32 0, i32 514, i32 0, i32 22, ptr @0 }, align 8

; Function Attrs: mustprogress nounwind uwtable
define linkonce_odr noundef ptr @_ZNKSt6vectorIdN8LightGBM6Common18AlignmentAllocatorIdLm32EEEE11_M_data_ptrIdEEPT_S7_(ptr noundef nonnull align 8 dereferenceable(24) %0, ptr noundef %1) #4 comdat align 2 {
  %3 = alloca ptr, align 8
  %4 = alloca ptr, align 8
  store ptr %0, ptr %3, align 8, !tbaa !9
  store ptr %1, ptr %4, align 8, !tbaa !36
  %5 = load ptr, ptr %4, align 8, !tbaa !36
  ret ptr %5
}

; Function Attrs: mustprogress nounwind uwtable
define linkonce_odr noundef ptr @_ZNSt6vectorIdN8LightGBM6Common18AlignmentAllocatorIdLm32EEEE4dataEv(ptr noundef nonnull align 8 dereferenceable(24) %0) #4 comdat align 2 {
  %2 = alloca ptr, align 8
  store ptr %0, ptr %2, align 8, !tbaa !9
  %3 = load ptr, ptr %2, align 8
  %4 = getelementptr inbounds nuw %"struct.std::_Vector_base.8", ptr %3, i32 0, i32 0
  %5 = getelementptr inbounds nuw %"struct.std::_Vector_base<double, LightGBM::Common::AlignmentAllocator<double>>::_Vector_impl_data", ptr %4, i32 0, i32 0
  %6 = load ptr, ptr %5, align 8, !tbaa !38
  %7 = call noundef ptr @_ZNKSt6vectorIdN8LightGBM6Common18AlignmentAllocatorIdLm32EEEE11_M_data_ptrIdEEPT_S7_(ptr noundef nonnull align 8 dereferenceable(24) %3, ptr noundef %6) #3
  ret ptr %7
}

; Function Attrs: inlinehint mustprogress nounwind uwtable
define linkonce_odr noundef nonnull align 4 dereferenceable(4) ptr @_ZSt3minIiERKT_S2_S2_(ptr noundef nonnull align 4 dereferenceable(4) %0, ptr noundef nonnull align 4 dereferenceable(4) %1) #9 comdat {
  %3 = alloca ptr, align 8
  %4 = alloca ptr, align 8
  %5 = alloca ptr, align 8
  store ptr %0, ptr %4, align 8, !tbaa !41
  store ptr %1, ptr %5, align 8, !tbaa !41
  %6 = load ptr, ptr %5, align 8, !tbaa !41
  %7 = load i32, ptr %6, align 4, !tbaa !45
  %8 = load ptr, ptr %4, align 8, !tbaa !41
  %9 = load i32, ptr %8, align 4, !tbaa !45
  %10 = icmp slt i32 %7, %9
  br i1 %10, label %11, label %13

11:                                               ; preds = %2
  %12 = load ptr, ptr %5, align 8, !tbaa !41
  store ptr %12, ptr %3, align 8
  br label %15

13:                                               ; preds = %2
  %14 = load ptr, ptr %4, align 8, !tbaa !41
  store ptr %14, ptr %3, align 8
  br label %15

15:                                               ; preds = %13, %11
  %16 = load ptr, ptr %3, align 8
  ret ptr %16
}

; Function Attrs: alwaysinline norecurse nounwind uwtable
define internal void @_ZN8LightGBM18MultiValBinWrapper9HistMergeILb1ELi16ELi8EEEvPSt6vectorIdNS_6Common18AlignmentAllocatorIdLm32EEEE.omp_outlined(ptr noalias noundef %0, ptr noalias noundef %1, ptr noundef nonnull align 4 dereferenceable(4) %2, ptr noundef nonnull align 4 dereferenceable(4) %3, ptr noundef %4, ptr noundef nonnull align 8 dereferenceable(8) %5, ptr noundef nonnull align 8 dereferenceable(8) %6) #6 {
  %8 = alloca ptr, align 8
  %9 = alloca ptr, align 8
  %10 = alloca ptr, align 8
  %11 = alloca ptr, align 8
  %12 = alloca ptr, align 8
  %13 = alloca ptr, align 8
  %14 = alloca ptr, align 8
  %15 = alloca i32, align 4
  %16 = alloca i32, align 4
  %17 = alloca i32, align 4
  %18 = alloca i32, align 4
  %19 = alloca i32, align 4
  %20 = alloca i32, align 4
  %21 = alloca i32, align 4
  %22 = alloca i32, align 4
  %23 = alloca i32, align 4
  %24 = alloca i32, align 4
  %25 = alloca i32, align 4
  %26 = alloca i32, align 4
  %27 = alloca i32, align 4
  %28 = alloca i32, align 4
  %29 = alloca ptr, align 8
  %30 = alloca i32, align 4
  %31 = alloca i16, align 2
  %32 = alloca i32, align 4
  store ptr %0, ptr %8, align 8, !tbaa !41
  store ptr %1, ptr %9, align 8, !tbaa !41
  store ptr %2, ptr %10, align 8, !tbaa !41
  store ptr %3, ptr %11, align 8, !tbaa !41
  store ptr %4, ptr %12, align 8, !tbaa !4
  store ptr %5, ptr %13, align 8, !tbaa !85
  store ptr %6, ptr %14, align 8, !tbaa !54
  %33 = load ptr, ptr %10, align 8, !tbaa !41
  %34 = load ptr, ptr %11, align 8, !tbaa !41
  %35 = load ptr, ptr %12, align 8, !tbaa !4
  %36 = load ptr, ptr %13, align 8, !tbaa !85
  %37 = load ptr, ptr %14, align 8, !tbaa !54
  call void @llvm.lifetime.start.p0(i64 4, ptr %15) #3
  call void @llvm.lifetime.start.p0(i64 4, ptr %16) #3
  %38 = load i32, ptr %33, align 4, !tbaa !45
  store i32 %38, ptr %16, align 4, !tbaa !45
  call void @llvm.lifetime.start.p0(i64 4, ptr %17) #3
  %39 = load i32, ptr %16, align 4, !tbaa !45
  %40 = sub nsw i32 %39, 0
  %41 = sdiv i32 %40, 1
  %42 = sub nsw i32 %41, 1
  store i32 %42, ptr %17, align 4, !tbaa !45
  call void @llvm.lifetime.start.p0(i64 4, ptr %18) #3
  store i32 0, ptr %18, align 4, !tbaa !45
  call void @llvm.lifetime.end.p0(i64 4, ptr %18) #3
  %43 = load i32, ptr %16, align 4, !tbaa !45
  %44 = icmp slt i32 0, %43
  br i1 %44, label %45, label %151

45:                                               ; preds = %7
  call void @llvm.lifetime.start.p0(i64 4, ptr %19) #3
  store i32 0, ptr %19, align 4, !tbaa !45
  call void @llvm.lifetime.start.p0(i64 4, ptr %20) #3
  %46 = load i32, ptr %17, align 4, !tbaa !45
  store i32 %46, ptr %20, align 4, !tbaa !45
  call void @llvm.lifetime.start.p0(i64 4, ptr %21) #3
  store i32 1, ptr %21, align 4, !tbaa !45
  call void @llvm.lifetime.start.p0(i64 4, ptr %22) #3
  store i32 0, ptr %22, align 4, !tbaa !45
  call void @llvm.lifetime.start.p0(i64 4, ptr %23) #3
  %47 = load ptr, ptr %8, align 8
  %48 = load i32, ptr %47, align 4, !tbaa !45
  call void @__kmpc_for_static_init_4(ptr @1, i32 %48, i32 33, ptr %22, ptr %19, ptr %20, ptr %21, i32 1, i32 1)
  br label %49

49:                                               ; preds = %141, %45
  %50 = load i32, ptr %20, align 4, !tbaa !45
  %51 = load i32, ptr %17, align 4, !tbaa !45
  %52 = icmp sgt i32 %50, %51
  br i1 %52, label %53, label %55

53:                                               ; preds = %49
  %54 = load i32, ptr %17, align 4, !tbaa !45
  br label %57

55:                                               ; preds = %49
  %56 = load i32, ptr %20, align 4, !tbaa !45
  br label %57

57:                                               ; preds = %55, %53
  %58 = phi i32 [ %54, %53 ], [ %56, %55 ]
  store i32 %58, ptr %20, align 4, !tbaa !45
  %59 = load i32, ptr %19, align 4, !tbaa !45
  store i32 %59, ptr %15, align 4, !tbaa !45
  %60 = load i32, ptr %15, align 4, !tbaa !45
  %61 = load i32, ptr %20, align 4, !tbaa !45
  %62 = icmp sle i32 %60, %61
  br i1 %62, label %64, label %63

63:                                               ; preds = %57
  br label %148

64:                                               ; preds = %57
  br label %65

65:                                               ; preds = %137, %64
  %66 = load i32, ptr %15, align 4, !tbaa !45
  %67 = load i32, ptr %20, align 4, !tbaa !45
  %68 = icmp sle i32 %66, %67
  br i1 %68, label %70, label %69

69:                                               ; preds = %65
  br label %140

70:                                               ; preds = %65
  %71 = load i32, ptr %15, align 4, !tbaa !45
  %72 = mul nsw i32 %71, 1
  %73 = add nsw i32 0, %72
  store i32 %73, ptr %23, align 4, !tbaa !45
  call void @llvm.lifetime.start.p0(i64 4, ptr %24) #3
  %74 = load i32, ptr %23, align 4, !tbaa !45
  %75 = load i32, ptr %34, align 4, !tbaa !45
  %76 = mul nsw i32 %74, %75
  store i32 %76, ptr %24, align 4, !tbaa !45
  call void @llvm.lifetime.start.p0(i64 4, ptr %25) #3
  call void @llvm.lifetime.start.p0(i64 4, ptr %26) #3
  %77 = load i32, ptr %24, align 4, !tbaa !45
  %78 = load i32, ptr %34, align 4, !tbaa !45
  %79 = add nsw i32 %77, %78
  store i32 %79, ptr %26, align 4, !tbaa !45
  %80 = getelementptr inbounds nuw %"class.LightGBM::MultiValBinWrapper", ptr %35, i32 0, i32 10
  %81 = call noundef nonnull align 4 dereferenceable(4) ptr @_ZSt3minIiERKT_S2_S2_(ptr noundef nonnull align 4 dereferenceable(4) %26, ptr noundef nonnull align 4 dereferenceable(4) %80)
  %82 = load i32, ptr %81, align 4, !tbaa !45
  call void @llvm.lifetime.end.p0(i64 4, ptr %26) #3
  store i32 %82, ptr %25, align 4, !tbaa !45
  call void @llvm.lifetime.start.p0(i64 4, ptr %27) #3
  store i32 0, ptr %27, align 4, !tbaa !45
  br label %83

83:                                               ; preds = %132, %70
  %84 = load i32, ptr %27, align 4, !tbaa !45
  %85 = getelementptr inbounds nuw %"class.LightGBM::MultiValBinWrapper", ptr %35, i32 0, i32 12
  %86 = load i32, ptr %85, align 4, !tbaa !87
  %87 = icmp slt i32 %84, %86
  br i1 %87, label %89, label %88

88:                                               ; preds = %83
  store i32 7, ptr %28, align 4
  call void @llvm.lifetime.end.p0(i64 4, ptr %27) #3
  br label %135

89:                                               ; preds = %83
  call void @llvm.lifetime.start.p0(i64 8, ptr %29) #3
  %90 = load ptr, ptr %36, align 8, !tbaa !9
  %91 = call noundef ptr @_ZNSt6vectorIdN8LightGBM6Common18AlignmentAllocatorIdLm32EEEE4dataEv(ptr noundef nonnull align 8 dereferenceable(24) %90) #3
  %92 = getelementptr inbounds nuw %"class.LightGBM::MultiValBinWrapper", ptr %35, i32 0, i32 11
  %93 = load i32, ptr %92, align 8, !tbaa !35
  %94 = sext i32 %93 to i64
  %95 = load i32, ptr %27, align 4, !tbaa !45
  %96 = sext i32 %95 to i64
  %97 = mul i64 %94, %96
  %98 = getelementptr inbounds nuw i16, ptr %91, i64 %97
  store ptr %98, ptr %29, align 8, !tbaa !96
  call void @llvm.lifetime.start.p0(i64 4, ptr %30) #3
  %99 = load i32, ptr %24, align 4, !tbaa !45
  store i32 %99, ptr %30, align 4, !tbaa !45
  br label %100

100:                                              ; preds = %128, %89
  %101 = load i32, ptr %30, align 4, !tbaa !45
  %102 = load i32, ptr %25, align 4, !tbaa !45
  %103 = icmp slt i32 %101, %102
  br i1 %103, label %105, label %104

104:                                              ; preds = %100
  store i32 10, ptr %28, align 4
  call void @llvm.lifetime.end.p0(i64 4, ptr %30) #3
  br label %131

105:                                              ; preds = %100
  call void @llvm.lifetime.start.p0(i64 2, ptr %31) #3
  %106 = load ptr, ptr %29, align 8, !tbaa !96
  %107 = load i32, ptr %30, align 4, !tbaa !45
  %108 = sext i32 %107 to i64
  %109 = getelementptr inbounds i16, ptr %106, i64 %108
  %110 = load i16, ptr %109, align 2, !tbaa !98
  store i16 %110, ptr %31, align 2, !tbaa !98
  call void @llvm.lifetime.start.p0(i64 4, ptr %32) #3
  %111 = load i16, ptr %31, align 2, !tbaa !98
  %112 = sext i16 %111 to i32
  %113 = ashr i32 %112, 8
  %114 = trunc i32 %113 to i8
  %115 = sext i8 %114 to i32
  %116 = shl i32 %115, 16
  %117 = load i16, ptr %31, align 2, !tbaa !98
  %118 = sext i16 %117 to i32
  %119 = and i32 %118, 255
  %120 = or i32 %116, %119
  store i32 %120, ptr %32, align 4, !tbaa !45
  %121 = load i32, ptr %32, align 4, !tbaa !45
  %122 = load ptr, ptr %37, align 8, !tbaa !41
  %123 = load i32, ptr %30, align 4, !tbaa !45
  %124 = sext i32 %123 to i64
  %125 = getelementptr inbounds i32, ptr %122, i64 %124
  %126 = load i32, ptr %125, align 4, !tbaa !45
  %127 = add nsw i32 %126, %121
  store i32 %127, ptr %125, align 4, !tbaa !45
  call void @llvm.lifetime.end.p0(i64 4, ptr %32) #3
  call void @llvm.lifetime.end.p0(i64 2, ptr %31) #3
  br label %128

128:                                              ; preds = %105
  %129 = load i32, ptr %30, align 4, !tbaa !45
  %130 = add nsw i32 %129, 1
  store i32 %130, ptr %30, align 4, !tbaa !45
  br label %100, !llvm.loop !100

131:                                              ; preds = %104
  call void @llvm.lifetime.end.p0(i64 8, ptr %29) #3
  br label %132

132:                                              ; preds = %131
  %133 = load i32, ptr %27, align 4, !tbaa !45
  %134 = add nsw i32 %133, 1
  store i32 %134, ptr %27, align 4, !tbaa !45
  br label %83, !llvm.loop !101

135:                                              ; preds = %88
  call void @llvm.lifetime.end.p0(i64 4, ptr %25) #3
  call void @llvm.lifetime.end.p0(i64 4, ptr %24) #3
  br label %136

136:                                              ; preds = %135
  br label %137

137:                                              ; preds = %136
  %138 = load i32, ptr %15, align 4, !tbaa !45
  %139 = add nsw i32 %138, 1
  store i32 %139, ptr %15, align 4, !tbaa !45
  br label %65

140:                                              ; preds = %69
  br label %141

141:                                              ; preds = %140
  %142 = load i32, ptr %19, align 4, !tbaa !45
  %143 = load i32, ptr %21, align 4, !tbaa !45
  %144 = add nsw i32 %142, %143
  store i32 %144, ptr %19, align 4, !tbaa !45
  %145 = load i32, ptr %20, align 4, !tbaa !45
  %146 = load i32, ptr %21, align 4, !tbaa !45
  %147 = add nsw i32 %145, %146
  store i32 %147, ptr %20, align 4, !tbaa !45
  br label %49

148:                                              ; preds = %63
  %149 = load ptr, ptr %8, align 8
  %150 = load i32, ptr %149, align 4, !tbaa !45
  call void @__kmpc_for_static_fini(ptr @1, i32 %150)
  call void @llvm.lifetime.end.p0(i64 4, ptr %23) #3
  call void @llvm.lifetime.end.p0(i64 4, ptr %22) #3
  call void @llvm.lifetime.end.p0(i64 4, ptr %21) #3
  call void @llvm.lifetime.end.p0(i64 4, ptr %20) #3
  call void @llvm.lifetime.end.p0(i64 4, ptr %19) #3
  br label %151

151:                                              ; preds = %148, %7
  call void @llvm.lifetime.end.p0(i64 4, ptr %17) #3
  call void @llvm.lifetime.end.p0(i64 4, ptr %16) #3
  call void @llvm.lifetime.end.p0(i64 4, ptr %15) #3
  ret void
}