; Function Attrs: alwaysinline norecurse nounwind uwtable
define internal void @_ZN8LightGBM18MultiValBinWrapper9HistMergeILb1ELi16ELi8EEEvPSt6vectorIdNS_6Common18AlignmentAllocatorIdLm32EEEE.omp_outlined(ptr noalias noundef readonly captures(none) %0, ptr noalias readnone captures(none) %1, ptr noundef nonnull readonly align 4 captures(none) dereferenceable(4) %2, ptr noundef nonnull readonly align 4 captures(none) dereferenceable(4) %3, ptr noundef readonly captures(none) %4, ptr noundef nonnull readonly align 8 captures(none) dereferenceable(8) %5, ptr noundef nonnull readonly align 8 captures(none) dereferenceable(8) %6) #5 {
  %8 = alloca i32, align 4
  %9 = alloca i32, align 4
  %10 = alloca i32, align 4
  %11 = alloca i32, align 4
  %12 = load i32, ptr %2, align 4, !tbaa !39
  %13 = add nsw i32 %12, -1
  %14 = icmp sgt i32 %12, 0
  br i1 %14, label %15, label %68

15:                                               ; preds = %7
  call void @llvm.lifetime.start.p0(i64 4, ptr nonnull %8) #6
  store i32 0, ptr %8, align 4, !tbaa !39
  call void @llvm.lifetime.start.p0(i64 4, ptr nonnull %9) #6
  store i32 %13, ptr %9, align 4, !tbaa !39
  call void @llvm.lifetime.start.p0(i64 4, ptr nonnull %10) #6
  store i32 1, ptr %10, align 4, !tbaa !39
  call void @llvm.lifetime.start.p0(i64 4, ptr nonnull %11) #6
  store i32 0, ptr %11, align 4, !tbaa !39
  %16 = load i32, ptr %0, align 4, !tbaa !39
  call void @__kmpc_for_static_init_4(ptr nonnull @1, i32 %16, i32 33, ptr nonnull %11, ptr nonnull %8, ptr nonnull %9, ptr nonnull %10, i32 1, i32 1)
  %17 = load i32, ptr %9, align 4, !tbaa !39
  %18 = call i32 @llvm.smin.i32(i32 %17, i32 %13)
  store i32 %18, ptr %9, align 4, !tbaa !39
  %19 = load i32, ptr %8, align 4, !tbaa !39
  %.not42 = icmp sgt i32 %19, %18
  br i1 %.not42, label %._crit_edge43, label %.preheader.lr.ph

.preheader.lr.ph:                                 ; preds = %15
  %20 = getelementptr inbounds nuw i8, ptr %4, i64 124
  %21 = getelementptr inbounds nuw i8, ptr %4, i64 132
  %22 = getelementptr inbounds nuw i8, ptr %4, i64 128
  br label %.preheader

.preheader:                                       ; preds = %.preheader.lr.ph, %._crit_edge
  %23 = phi i32 [ %18, %.preheader.lr.ph ], [ %67, %._crit_edge ]
  %24 = phi i32 [ %19, %.preheader.lr.ph ], [ %65, %._crit_edge ]
  %.not3340 = icmp sgt i32 %24, %23
  br i1 %.not3340, label %._crit_edge, label %.lr.ph

.lr.ph:                                           ; preds = %.preheader
  %25 = load ptr, ptr %5, align 8
  %26 = load i32, ptr %21, align 4, !tbaa !59
  %27 = icmp sgt i32 %26, 0
  br i1 %27, label %.lr.ph.split, label %._crit_edge

.lr.ph.split:                                     ; preds = %.lr.ph, %._crit_edge39
  %28 = phi i32 [ %60, %._crit_edge39 ], [ %23, %.lr.ph ]
  %29 = phi i32 [ %61, %._crit_edge39 ], [ %26, %.lr.ph ]
  %.041 = phi i32 [ %62, %._crit_edge39 ], [ %24, %.lr.ph ]
  %30 = load i32, ptr %3, align 4, !tbaa !39
  %31 = mul i32 %30, %.041
  %32 = add nsw i32 %31, %30
  %33 = load i32, ptr %20, align 4, !tbaa !39
  %.sroa.speculated = call i32 @llvm.smin.i32(i32 %33, i32 %32)
  %34 = icmp sgt i32 %29, 0
  br i1 %34, label %.lr.ph38, label %._crit_edge39

.lr.ph38:                                         ; preds = %.lr.ph.split
  %35 = load ptr, ptr %25, align 8, !tbaa !31
  %36 = icmp slt i32 %31, %.sroa.speculated
  %37 = load ptr, ptr %6, align 8
  br i1 %36, label %.lr.ph.us.preheader, label %._crit_edge39

.lr.ph.us.preheader:                              ; preds = %.lr.ph38
  %38 = sext i32 %31 to i64
  %39 = sext i32 %.sroa.speculated to i64
  br label %.lr.ph.us

.lr.ph.us:                                        ; preds = %.lr.ph.us.preheader, %._crit_edge.us
  %indvars.iv48 = phi i64 [ 0, %.lr.ph.us.preheader ], [ %indvars.iv.next49, %._crit_edge.us ]
  %40 = load i32, ptr %22, align 8, !tbaa !34
  %41 = sext i32 %40 to i64
  %42 = mul nsw i64 %indvars.iv48, %41
  %43 = getelementptr inbounds nuw i16, ptr %35, i64 %42
  br label %44

44:                                               ; preds = %.lr.ph.us, %44
  %indvars.iv = phi i64 [ %38, %.lr.ph.us ], [ %indvars.iv.next, %44 ]
  %45 = getelementptr inbounds i16, ptr %43, i64 %indvars.iv
  %46 = load i16, ptr %45, align 2, !tbaa !68
  %47 = lshr i16 %46, 8
  %48 = zext nneg i16 %47 to i32
  %sext.us = shl nuw i32 %48, 24
  %49 = ashr exact i32 %sext.us, 8
  %50 = and i16 %46, 255
  %51 = zext nneg i16 %50 to i32
  %52 = getelementptr inbounds i32, ptr %37, i64 %indvars.iv
  %53 = load i32, ptr %52, align 4, !tbaa !39
  %54 = add i32 %53, %51
  %55 = add i32 %54, %49
  store i32 %55, ptr %52, align 4, !tbaa !39
  %indvars.iv.next = add nsw i64 %indvars.iv, 1
  %56 = icmp slt i64 %indvars.iv.next, %39
  br i1 %56, label %44, label %._crit_edge.us, !llvm.loop !70

._crit_edge.us:                                   ; preds = %44
  %indvars.iv.next49 = add nuw nsw i64 %indvars.iv48, 1
  %57 = load i32, ptr %21, align 4, !tbaa !59
  %58 = sext i32 %57 to i64
  %59 = icmp slt i64 %indvars.iv.next49, %58
  br i1 %59, label %.lr.ph.us, label %._crit_edge39.loopexit, !llvm.loop !71

._crit_edge39.loopexit:                           ; preds = %._crit_edge.us
  %.pre = load i32, ptr %9, align 4, !tbaa !39
  br label %._crit_edge39

._crit_edge39:                                    ; preds = %.lr.ph38, %._crit_edge39.loopexit, %.lr.ph.split
  %60 = phi i32 [ %.pre, %._crit_edge39.loopexit ], [ %28, %.lr.ph.split ], [ %28, %.lr.ph38 ]
  %61 = phi i32 [ %57, %._crit_edge39.loopexit ], [ %29, %.lr.ph.split ], [ %29, %.lr.ph38 ]
  %62 = add nsw i32 %.041, 1
  %.not33.not = icmp slt i32 %.041, %60
  br i1 %.not33.not, label %.lr.ph.split, label %._crit_edge.loopexit, !llvm.loop !72

._crit_edge.loopexit:                             ; preds = %._crit_edge39
  %.pre51 = load i32, ptr %8, align 4, !tbaa !39
  br label %._crit_edge

._crit_edge:                                      ; preds = %.lr.ph, %._crit_edge.loopexit, %.preheader
  %63 = phi i32 [ %24, %.preheader ], [ %.pre51, %._crit_edge.loopexit ], [ %24, %.lr.ph ]
  %.lcssa = phi i32 [ %23, %.preheader ], [ %60, %._crit_edge.loopexit ], [ %23, %.lr.ph ]
  %64 = load i32, ptr %10, align 4, !tbaa !39
  %65 = add nsw i32 %64, %63
  store i32 %65, ptr %8, align 4, !tbaa !39
  %66 = add nsw i32 %64, %.lcssa
  %67 = call i32 @llvm.smin.i32(i32 %66, i32 %13)
  store i32 %67, ptr %9, align 4, !tbaa !39
  %.not = icmp sgt i32 %65, %67
  br i1 %.not, label %._crit_edge43, label %.preheader

._crit_edge43:                                    ; preds = %._crit_edge, %15
  call void @__kmpc_for_static_fini(ptr nonnull @1, i32 %16)
  call void @llvm.lifetime.end.p0(i64 4, ptr nonnull %11) #6
  call void @llvm.lifetime.end.p0(i64 4, ptr nonnull %10) #6
  call void @llvm.lifetime.end.p0(i64 4, ptr nonnull %9) #6
  call void @llvm.lifetime.end.p0(i64 4, ptr nonnull %8) #6
  br label %68

68:                                               ; preds = %._crit_edge43, %7
  ret void
}